target datalayout = "e-m:e-p270:32:32-p271:32:32-p272:64:64-i64:64-i128:128-f80:128-n8:16:32:64-S128"
target triple = "x86_64-pc-linux-gnu"

%struct._voip_calls_tapinfo = type { ptr, ptr, ptr, ptr, i32, ptr, [1 x ptr], i32, ptr, i32, i32, i32, ptr, ptr, i32, ptr, i32, i8, i8, ptr, i32, i32, i32, i8, i32, ptr, ptr, ptr, i8, i32, i32, i32, i16, i32, i8, i32, i32, i32, i32, i32, i32, i8 }
%struct._address = type { i32, i32, ptr, ptr }
%struct.nstime_t = type { i64, i32 }
%struct._packet_info = type { ptr, ptr, i32, i32, %struct.nstime_t, %struct.nstime_t, %struct.nstime_t, i8, ptr, ptr, ptr, ptr, %struct._address, %struct._address, %struct._address, %struct._address, %struct._address, %struct._address, i32, ptr, i8, [3 x i8], %struct.anon, i32, i32, i32, i32, ptr, i8, ptr, ptr, i16, i16, i32, i32, i16, i32, i32, ptr, ptr, ptr, i8, i8, i16, i16, i16, i32, i16, i16, ptr, ptr, ptr, ptr, ptr, i32, i32 }
%struct.anon = type { i8, [3 x i8] }
%struct._seq_analysis_info = type { ptr, i8, i32, ptr, ptr, [40 x %struct._address], [40 x i8], i32 }
%struct._seq_analysis_item = type { i32, %struct._address, i16, %struct._address, i16, ptr, ptr, ptr, i16, i32, i32, i8, i8, i32, i32, i16, i32, ptr }
%struct._sdp_packet_info = type { [50 x i8] }

@.str.39 = private unnamed_addr constant [6 x i8] c"%s %s\00", align 1
@.str.87 = private unnamed_addr constant [9 x i8] c"SDP (%s)\00", align 1

; Function Attrs: null_pointer_is_valid sspstrong uwtable
define internal i32 @append_to_frame_graph(ptr noundef %0, i32 noundef %1, ptr noundef %2, ptr noundef %3) #0 {
  %5 = alloca ptr, align 8
  %6 = alloca i32, align 4
  %7 = alloca ptr, align 8
  %8 = alloca ptr, align 8
  %9 = alloca ptr, align 8
  %10 = alloca ptr, align 8
  %11 = alloca ptr, align 8
  store ptr %0, ptr %5, align 8
  store i32 %1, ptr %6, align 4
  store ptr %2, ptr %7, align 8
  store ptr %3, ptr %8, align 8
  call void @llvm.lifetime.start.p0(i64 8, ptr %9) #16
  store ptr null, ptr %9, align 8
  call void @llvm.lifetime.start.p0(i64 8, ptr %10) #16
  store ptr null, ptr %10, align 8
  call void @llvm.lifetime.start.p0(i64 8, ptr %11) #16
  store ptr null, ptr %11, align 8
  %12 = load ptr, ptr %5, align 8
  %13 = getelementptr inbounds nuw %struct._voip_calls_tapinfo, ptr %12, i32 0, i32 12
  %14 = load ptr, ptr %13, align 8
  %15 = icmp ne ptr %14, null
  br i1 %15, label %16, label %33

16:                                               ; preds = %4
  %17 = load ptr, ptr %5, align 8
  %18 = getelementptr inbounds nuw %struct._voip_calls_tapinfo, ptr %17, i32 0, i32 12
  %19 = load ptr, ptr %18, align 8
  %20 = getelementptr inbounds nuw %struct._seq_analysis_info, ptr %19, i32 0, i32 4
  %21 = load ptr, ptr %20, align 8
  %22 = icmp ne ptr null, %21
  br i1 %22, label %23, label %33

23:                                               ; preds = %16
  %24 = load ptr, ptr %5, align 8
  %25 = getelementptr inbounds nuw %struct._voip_calls_tapinfo, ptr %24, i32 0, i32 12
  %26 = load ptr, ptr %25, align 8
  %27 = getelementptr inbounds nuw %struct._seq_analysis_info, ptr %26, i32 0, i32 4
  %28 = load ptr, ptr %27, align 8
  %29 = load i32, ptr %6, align 4
  %30 = zext i32 %29 to i64
  %31 = inttoptr i64 %30 to ptr
  %32 = call ptr @g_hash_table_lookup(ptr noundef %28, ptr noundef %31)
  store ptr %32, ptr %9, align 8
  br label %33

33:                                               ; preds = %23, %16, %4
  %34 = load ptr, ptr %9, align 8
  %35 = icmp ne ptr %34, null
  br i1 %35, label %36, label %63

36:                                               ; preds = %33
  %37 = load ptr, ptr %9, align 8
  %38 = getelementptr inbounds nuw %struct._seq_analysis_item, ptr %37, i32 0, i32 5
  %39 = load ptr, ptr %38, align 8
  store ptr %39, ptr %10, align 8
  %40 = load ptr, ptr %9, align 8
  %41 = getelementptr inbounds nuw %struct._seq_analysis_item, ptr %40, i32 0, i32 7
  %42 = load ptr, ptr %41, align 8
  store ptr %42, ptr %11, align 8
  %43 = load ptr, ptr %7, align 8
  %44 = icmp ne ptr %43, null
  br i1 %44, label %45, label %52

45:                                               ; preds = %36
  %46 = load ptr, ptr %10, align 8
  %47 = load ptr, ptr %7, align 8
  %48 = call noalias ptr (ptr, ptr, ...) @wmem_strdup_printf(ptr noundef null, ptr noundef @.str.39, ptr noundef %46, ptr noundef %47)
  %49 = load ptr, ptr %9, align 8
  %50 = getelementptr inbounds nuw %struct._seq_analysis_item, ptr %49, i32 0, i32 5
  store ptr %48, ptr %50, align 8
  %51 = load ptr, ptr %10, align 8
  call void @g_free(ptr noundef %51)
  br label %52

52:                                               ; preds = %45, %36
  %53 = load ptr, ptr %8, align 8
  %54 = icmp ne ptr %53, null
  br i1 %54, label %55, label %62

55:                                               ; preds = %52
  %56 = load ptr, ptr %11, align 8
  %57 = load ptr, ptr %8, align 8
  %58 = call noalias ptr (ptr, ptr, ...) @wmem_strdup_printf(ptr noundef null, ptr noundef @.str.39, ptr noundef %56, ptr noundef %57)
  %59 = load ptr, ptr %9, align 8
  %60 = getelementptr inbounds nuw %struct._seq_analysis_item, ptr %59, i32 0, i32 7
  store ptr %58, ptr %60, align 8
  %61 = load ptr, ptr %11, align 8
  call void @g_free(ptr noundef %61)
  br label %62

62:                                               ; preds = %55, %52
  br label %63

63:                                               ; preds = %62, %33
  %64 = load ptr, ptr %9, align 8
  %65 = icmp ne ptr %64, null
  %66 = select i1 %65, i32 1, i32 0
  call void @llvm.lifetime.end.p0(i64 8, ptr %11) #16
  call void @llvm.lifetime.end.p0(i64 8, ptr %10) #16
  call void @llvm.lifetime.end.p0(i64 8, ptr %9) #16
  ret i32 %66
}

; Function Attrs: inlinehint nounwind null_pointer_is_valid sspstrong uwtable
define internal ptr @tap_id_to_base(ptr noundef %0, i32 noundef %1) #4 {
  %3 = alloca ptr, align 8
  %4 = alloca i32, align 4
  store ptr %0, ptr %3, align 8
  store i32 %1, ptr %4, align 4
  %5 = load ptr, ptr %3, align 8
  %6 = ptrtoint ptr %5 to i64
  %7 = load i32, ptr %4, align 4
  %8 = sext i32 %7 to i64
  %9 = sub i64 %6, %8
  %10 = inttoptr i64 %9 to ptr
  ret ptr %10
}

; Function Attrs: null_pointer_is_valid sspstrong uwtable
define internal i32 @sdp_calls_packet(ptr noundef %0, ptr noundef %1, ptr noundef %2, ptr noundef %3, i32 noundef %4) #0 {
  %6 = alloca ptr, align 8
  %7 = alloca ptr, align 8
  %8 = alloca ptr, align 8
  %9 = alloca ptr, align 8
  %10 = alloca i32, align 4
  %11 = alloca ptr, align 8
  %12 = alloca ptr, align 8
  store ptr %0, ptr %6, align 8
  store ptr %1, ptr %7, align 8
  store ptr %2, ptr %8, align 8
  store ptr %3, ptr %9, align 8
  store i32 %4, ptr %10, align 4
  call void @llvm.lifetime.start.p0(i64 8, ptr %11) #16
  %13 = load ptr, ptr %6, align 8
  %14 = call ptr @tap_id_to_base(ptr noundef %13, i32 noundef 14)
  store ptr %14, ptr %11, align 8
  call void @llvm.lifetime.start.p0(i64 8, ptr %12) #16
  %15 = load ptr, ptr %9, align 8
  store ptr %15, ptr %12, align 8
  %16 = load ptr, ptr %11, align 8
  %17 = getelementptr inbounds nuw %struct._voip_calls_tapinfo, ptr %16, i32 0, i32 19
  %18 = load ptr, ptr %17, align 8
  call void @g_free(ptr noundef %18)
  %19 = load ptr, ptr %7, align 8
  %20 = getelementptr inbounds nuw %struct._packet_info, ptr %19, i32 0, i32 3
  %21 = load i32, ptr %20, align 4
  %22 = load ptr, ptr %11, align 8
  %23 = getelementptr inbounds nuw %struct._voip_calls_tapinfo, ptr %22, i32 0, i32 20
  store i32 %21, ptr %23, align 8
  %24 = load ptr, ptr %12, align 8
  %25 = getelementptr inbounds nuw %struct._sdp_packet_info, ptr %24, i32 0, i32 0
  %26 = getelementptr inbounds [50 x i8], ptr %25, i64 0, i64 0
  %27 = call noalias ptr (ptr, ptr, ...) @wmem_strdup_printf(ptr noundef null, ptr noundef @.str.87, ptr noundef %26)
  %28 = load ptr, ptr %11, align 8
  %29 = getelementptr inbounds nuw %struct._voip_calls_tapinfo, ptr %28, i32 0, i32 19
  store ptr %27, ptr %29, align 8
  %30 = load ptr, ptr %11, align 8
  %31 = load ptr, ptr %7, align 8
  %32 = getelementptr inbounds nuw %struct._packet_info, ptr %31, i32 0, i32 3
  %33 = load i32, ptr %32, align 4
  %34 = load ptr, ptr %11, align 8
  %35 = getelementptr inbounds nuw %struct._voip_calls_tapinfo, ptr %34, i32 0, i32 19
  %36 = load ptr, ptr %35, align 8
  %37 = call i32 @append_to_frame_graph(ptr noundef %30, i32 noundef %33, ptr noundef %36, ptr noundef null)
  %38 = load ptr, ptr %11, align 8
  %39 = getelementptr inbounds nuw %struct._voip_calls_tapinfo, ptr %38, i32 0, i32 40
  %40 = load i32, ptr %39, align 8
  %41 = or i32 %40, 16384
  store i32 %41, ptr %39, align 8
  call void @llvm.lifetime.end.p0(i64 8, ptr %12) #16
  call void @llvm.lifetime.end.p0(i64 8, ptr %11) #16
  ret i32 1
}