; Function Attrs: null_pointer_is_valid sspstrong uwtable
define internal noundef i32 @sdp_calls_packet(ptr noundef %0, ptr noundef readonly captures(none) %1, ptr readnone captures(none) %2, ptr noundef %3, i32 %4) #0 {
  %6 = ptrtoint ptr %0 to i64
  %7 = add i64 %6, -14
  %8 = inttoptr i64 %7 to ptr
  %9 = getelementptr inbounds nuw i8, ptr %8, i64 128
  %10 = load ptr, ptr %9, align 8
  tail call void @g_free(ptr noundef %10)
  %11 = getelementptr inbounds nuw i8, ptr %1, i64 20
  %12 = load i32, ptr %11, align 4
  %13 = getelementptr inbounds nuw i8, ptr %8, i64 136
  store i32 %12, ptr %13, align 8
  %14 = tail call noalias ptr (ptr, ptr, ...) @wmem_strdup_printf(ptr noundef null, ptr noundef nonnull @.str.87, ptr noundef %3)
  store ptr %14, ptr %9, align 8
  %15 = load i32, ptr %11, align 4
  %16 = getelementptr i8, ptr %8, i64 88
  %.val = load ptr, ptr %16, align 8
  %.not.i = icmp eq ptr %.val, null
  br i1 %.not.i, label %append_to_frame_graph.exit, label %17

17:                                               ; preds = %5
  %18 = getelementptr inbounds nuw i8, ptr %.val, i64 24
  %19 = load ptr, ptr %18, align 8
  %.not21.i = icmp eq ptr %19, null
  br i1 %.not21.i, label %append_to_frame_graph.exit, label %20

20:                                               ; preds = %17
  %21 = zext i32 %15 to i64
  %22 = inttoptr i64 %21 to ptr
  %23 = tail call ptr @g_hash_table_lookup(ptr noundef nonnull %19, ptr noundef %22)
  %.not22.not.i = icmp eq ptr %23, null
  %.not23.i = icmp eq ptr %14, null
  %or.cond = select i1 %.not22.not.i, i1 true, i1 %.not23.i
  br i1 %or.cond, label %append_to_frame_graph.exit, label %24

24:                                               ; preds = %20
  %25 = getelementptr inbounds nuw i8, ptr %23, i64 72
  %26 = load ptr, ptr %25, align 8
  %27 = tail call noalias ptr (ptr, ptr, ...) @wmem_strdup_printf(ptr noundef null, ptr noundef nonnull @.str.39, ptr noundef %26, ptr noundef nonnull %14)
  store ptr %27, ptr %25, align 8
  tail call void @g_free(ptr noundef %26)
  br label %append_to_frame_graph.exit

append_to_frame_graph.exit:                       ; preds = %24, %5, %17, %20
  %28 = getelementptr inbounds nuw i8, ptr %8, i64 232
  %29 = load i32, ptr %28, align 8
  %30 = or i32 %29, 16384
  store i32 %30, ptr %28, align 8
  ret i32 1
}